target datalayout = "e-m:e-p270:32:32-p271:32:32-p272:64:64-i64:64-i128:128-f80:128-n8:16:32:64-S128"
target triple = "x86_64-pc-linux-gnu"

%"class.duckdb::MetadataManager" = type { ptr, ptr, %"class.std::unordered_map", %"class.std::unordered_map.2" }
%"class.std::unordered_map" = type { %"class.std::_Hashtable" }
%"class.std::_Hashtable" = type { ptr, i64, %"struct.std::__detail::_Hash_node_base", i64, %"struct.std::__detail::_Prime_rehash_policy", ptr }
%"struct.std::__detail::_Hash_node_base" = type { ptr }
%"struct.std::__detail::_Prime_rehash_policy" = type { float, i64 }
%"class.std::unordered_map.2" = type { %"class.std::_Hashtable.3" }
%"class.std::_Hashtable.3" = type { ptr, i64, %"struct.std::__detail::_Hash_node_base", i64, %"struct.std::__detail::_Prime_rehash_policy", ptr }
%"struct.duckdb::MetadataHandle" = type { %"struct.duckdb::MetadataPointer", %"class.duckdb::BufferHandle" }
%"struct.duckdb::MetadataPointer" = type { i64 }
%"class.duckdb::BufferHandle" = type { %"class.duckdb::shared_ptr", %"class.duckdb::optional_ptr" }
%"class.duckdb::shared_ptr" = type { %"class.std::shared_ptr" }
%"class.std::shared_ptr" = type { %"class.std::__shared_ptr" }
%"class.std::__shared_ptr" = type { ptr, %"class.std::__shared_count" }
%"class.std::__shared_count" = type { ptr }
%"class.duckdb::optional_ptr" = type { ptr }
%"class.std::mutex" = type { %"class.std::__mutex_base" }
%"class.std::__mutex_base" = type { %union.pthread_mutex_t }
%union.pthread_mutex_t = type { %struct.__pthread_mutex_s }
%struct.__pthread_mutex_s = type { i32, i32, i32, i32, i32, i16, i16, %struct.__pthread_internal_list }
%struct.__pthread_internal_list = type { ptr, ptr }
%"class.duckdb::BlockManager" = type { ptr, ptr, %"class.std::mutex", %"class.std::unordered_map.16", %"class.duckdb::unique_ptr", %"class.duckdb::optional_idx" }
%"class.std::unordered_map.16" = type { %"class.std::_Hashtable.17" }
%"class.std::_Hashtable.17" = type { ptr, i64, %"struct.std::__detail::_Hash_node_base", i64, %"struct.std::__detail::_Prime_rehash_policy", ptr }
%"class.duckdb::unique_ptr" = type { %"class.std::unique_ptr" }
%"class.std::unique_ptr" = type { %"struct.std::__uniq_ptr_data" }
%"struct.std::__uniq_ptr_data" = type { %"class.std::__uniq_ptr_impl" }
%"class.std::__uniq_ptr_impl" = type { %"class.std::tuple" }
%"class.std::tuple" = type { %"struct.std::_Tuple_impl" }
%"struct.std::_Tuple_impl" = type { %"struct.std::_Head_base.31" }
%"struct.std::_Head_base.31" = type { ptr }
%"class.duckdb::optional_idx" = type { i64 }
%"struct.duckdb::MetaBlockPointer" = type { i64, i32, i32 }
%"struct.duckdb::BlockPointer" = type { i64, i32, i32 }
%"class.duckdb::optional_ptr.85" = type { ptr }
%"class.duckdb::MetadataWriter" = type { %"class.duckdb::WriteStream", ptr, %"struct.duckdb::MetadataHandle", %"struct.duckdb::MetadataPointer", %"class.duckdb::optional_ptr.85", i64, i64 }
%"class.duckdb::WriteStream" = type { ptr }

; Function Attrs: mustprogress nounwind uwtable
define linkonce_odr void @_ZN6duckdb16MetaBlockPointerC2Emj(ptr noundef nonnull align 8 dereferenceable(16) %0, i64 noundef %1, i32 noundef %2) unnamed_addr #0 comdat align 2 {
  %4 = alloca ptr, align 8
  %5 = alloca i64, align 8
  %6 = alloca i32, align 4
  store ptr %0, ptr %4, align 8, !tbaa !125
  store i64 %1, ptr %5, align 8, !tbaa !16
  store i32 %2, ptr %6, align 4, !tbaa !124
  %7 = load ptr, ptr %4, align 8
  %8 = getelementptr inbounds nuw %"struct.duckdb::MetaBlockPointer", ptr %7, i32 0, i32 0
  %9 = load i64, ptr %5, align 8, !tbaa !16
  store i64 %9, ptr %8, align 8, !tbaa !127
  %10 = getelementptr inbounds nuw %"struct.duckdb::MetaBlockPointer", ptr %7, i32 0, i32 1
  %11 = load i32, ptr %6, align 4, !tbaa !124
  store i32 %11, ptr %10, align 8, !tbaa !129
  %12 = getelementptr inbounds nuw %"struct.duckdb::MetaBlockPointer", ptr %7, i32 0, i32 2
  store i32 0, ptr %12, align 4, !tbaa !130
  ret void
}

; Function Attrs: mustprogress uwtable
define linkonce_odr noundef i32 @_ZN6duckdb11NumericCastIjmvEET_T0_(i64 noundef %0) #2 comdat {
  %2 = alloca i64, align 8
  store i64 %0, ptr %2, align 8, !tbaa !16
  %3 = load i64, ptr %2, align 8, !tbaa !16
  %4 = call noundef i32 @_ZN6duckdb15NumericCastImplIjmLb0EE7ConvertEm(i64 noundef %3)
  ret i32 %4
}

; Function Attrs: mustprogress nounwind uwtable
define noundef i32 @_ZNK6duckdb16MetaBlockPointer13GetBlockIndexEv(ptr noundef nonnull align 8 dereferenceable(16) %0) #0 align 2 {
  %2 = alloca ptr, align 8
  store ptr %0, ptr %2, align 8, !tbaa !125
  %3 = load ptr, ptr %2, align 8
  %4 = getelementptr inbounds nuw %"struct.duckdb::MetaBlockPointer", ptr %3, i32 0, i32 0
  %5 = load i64, ptr %4, align 8, !tbaa !127
  %6 = lshr i64 %5, 56
  %7 = trunc i64 %6 to i32
  ret i32 %7
}

; Function Attrs: mustprogress nounwind uwtable
define noundef i64 @_ZNK6duckdb16MetaBlockPointer10GetBlockIdEv(ptr noundef nonnull align 8 dereferenceable(16) %0) #0 align 2 {
  %2 = alloca ptr, align 8
  store ptr %0, ptr %2, align 8, !tbaa !125
  %3 = load ptr, ptr %2, align 8
  %4 = getelementptr inbounds nuw %"struct.duckdb::MetaBlockPointer", ptr %3, i32 0, i32 0
  %5 = load i64, ptr %4, align 8, !tbaa !127
  %6 = and i64 %5, 72057594037927935
  ret i64 %6
}

; Function Attrs: mustprogress nounwind uwtable
define linkonce_odr void @_ZN6duckdb12BlockPointerC2Ev(ptr noundef nonnull align 8 dereferenceable(16) %0) unnamed_addr #0 comdat align 2 {
  %2 = alloca ptr, align 8
  store ptr %0, ptr %2, align 8, !tbaa !135
  %3 = load ptr, ptr %2, align 8
  %4 = getelementptr inbounds nuw %"struct.duckdb::BlockPointer", ptr %3, i32 0, i32 0
  store i64 -1, ptr %4, align 8, !tbaa !132
  %5 = getelementptr inbounds nuw %"struct.duckdb::BlockPointer", ptr %3, i32 0, i32 1
  store i32 0, ptr %5, align 8, !tbaa !134
  %6 = getelementptr inbounds nuw %"struct.duckdb::BlockPointer", ptr %3, i32 0, i32 2
  store i32 0, ptr %6, align 4, !tbaa !137
  ret void
}

; Function Attrs: inlinehint mustprogress nounwind uwtable
define linkonce_odr noundef i64 @_ZN6duckdb15AlignValueFloorImTnT_Lm8EEES1_S1_(i64 noundef %0) #1 comdat {
  %2 = alloca i64, align 8
  store i64 %0, ptr %2, align 8, !tbaa !16
  %3 = load i64, ptr %2, align 8, !tbaa !16
  %4 = udiv i64 %3, 8
  %5 = mul i64 %4, 8
  ret i64 %5
}

; Function Attrs: inlinehint mustprogress uwtable
define linkonce_odr noundef i64 @_ZNK6duckdb12BlockManager12GetBlockSizeEv(ptr noundef nonnull align 8 dereferenceable(128) %0) #4 comdat align 2 {
  %2 = alloca ptr, align 8
  store ptr %0, ptr %2, align 8, !tbaa !8
  %3 = load ptr, ptr %2, align 8
  %4 = getelementptr inbounds nuw %"class.duckdb::BlockManager", ptr %3, i32 0, i32 5
  %5 = call noundef i64 @_ZNK6duckdb12optional_idx8GetIndexEv(ptr noundef nonnull align 8 dereferenceable(8) %4)
  %6 = sub i64 %5, 8
  ret i64 %6
}

; Function Attrs: mustprogress uwtable
define { i64, i64 } @_ZN6duckdb15MetadataManager14GetDiskPointerERKNS_15MetadataPointerEj(ptr noundef nonnull align 8 dereferenceable(128) %0, ptr noundef nonnull align 8 dereferenceable(8) %1, i32 noundef %2) #2 align 2 {
  %4 = alloca %"struct.duckdb::MetaBlockPointer", align 8
  %5 = alloca ptr, align 8
  %6 = alloca ptr, align 8
  %7 = alloca i32, align 4
  %8 = alloca i64, align 8
  store ptr %0, ptr %5, align 8, !tbaa !3
  store ptr %1, ptr %6, align 8, !tbaa !104
  store i32 %2, ptr %7, align 4, !tbaa !124
  call void @llvm.lifetime.start.p0(i64 8, ptr %8) #19
  %9 = load ptr, ptr %6, align 8, !tbaa !104
  %10 = load i64, ptr %9, align 8
  %11 = and i64 %10, 72057594037927935
  store i64 %11, ptr %8, align 8, !tbaa !16
  %12 = load ptr, ptr %6, align 8, !tbaa !104
  %13 = load i64, ptr %12, align 8
  %14 = lshr i64 %13, 56
  %15 = trunc i64 %14 to i8
  %16 = zext i8 %15 to i64
  %17 = shl i64 %16, 56
  %18 = load i64, ptr %8, align 8, !tbaa !16
  %19 = or i64 %18, %17
  store i64 %19, ptr %8, align 8, !tbaa !16
  %20 = load i64, ptr %8, align 8, !tbaa !16
  %21 = load i32, ptr %7, align 4, !tbaa !124
  call void @_ZN6duckdb16MetaBlockPointerC2Emj(ptr noundef nonnull align 8 dereferenceable(16) %4, i64 noundef %20, i32 noundef %21)
  call void @llvm.lifetime.end.p0(i64 8, ptr %8) #19
  %22 = load { i64, i64 }, ptr %4, align 8
  ret { i64, i64 } %22
}

; Function Attrs: mustprogress nounwind uwtable
define linkonce_odr noundef i32 @_ZN6duckdb17UnsafeNumericCastIjmvEET_T0_(i64 noundef %0) #0 comdat {
  %2 = alloca i64, align 8
  store i64 %0, ptr %2, align 8, !tbaa !16
  %3 = load i64, ptr %2, align 8, !tbaa !16
  %4 = trunc i64 %3 to i32
  ret i32 %4
}

; Function Attrs: mustprogress uwtable
define { i64, i64 } @_ZN6duckdb15MetadataManager14ToBlockPointerENS_16MetaBlockPointerEm(i64 %0, i64 %1, i64 noundef %2) #2 align 2 {
  %4 = alloca %"struct.duckdb::BlockPointer", align 8
  %5 = alloca %"struct.duckdb::MetaBlockPointer", align 8
  %6 = alloca i64, align 8
  %7 = getelementptr inbounds nuw { i64, i64 }, ptr %5, i32 0, i32 0
  store i64 %0, ptr %7, align 8
  %8 = getelementptr inbounds nuw { i64, i64 }, ptr %5, i32 0, i32 1
  store i64 %1, ptr %8, align 8
  store i64 %2, ptr %6, align 8, !tbaa !16
  call void @_ZN6duckdb12BlockPointerC2Ev(ptr noundef nonnull align 8 dereferenceable(16) %4)
  %9 = call noundef i64 @_ZNK6duckdb16MetaBlockPointer10GetBlockIdEv(ptr noundef nonnull align 8 dereferenceable(16) %5)
  %10 = getelementptr inbounds nuw %"struct.duckdb::BlockPointer", ptr %4, i32 0, i32 0
  store i64 %9, ptr %10, align 8, !tbaa !132
  %11 = call noundef i32 @_ZNK6duckdb16MetaBlockPointer13GetBlockIndexEv(ptr noundef nonnull align 8 dereferenceable(16) %5)
  %12 = load i64, ptr %6, align 8, !tbaa !16
  %13 = call noundef i32 @_ZN6duckdb11NumericCastIjmvEET_T0_(i64 noundef %12)
  %14 = mul i32 %11, %13
  %15 = getelementptr inbounds nuw %"struct.duckdb::MetaBlockPointer", ptr %5, i32 0, i32 1
  %16 = load i32, ptr %15, align 8, !tbaa !129
  %17 = add i32 %14, %16
  %18 = getelementptr inbounds nuw %"struct.duckdb::BlockPointer", ptr %4, i32 0, i32 1
  store i32 %17, ptr %18, align 8, !tbaa !134
  %19 = load { i64, i64 }, ptr %4, align 8
  ret { i64, i64 } %19
}

; Function Attrs: mustprogress uwtable
define noundef i64 @_ZNK6duckdb15MetadataManager20GetMetadataBlockSizeEv(ptr noundef nonnull align 8 dereferenceable(128) %0) #2 align 2 {
  %2 = alloca ptr, align 8
  store ptr %0, ptr %2, align 8, !tbaa !3
  %3 = load ptr, ptr %2, align 8
  %4 = getelementptr inbounds nuw %"class.duckdb::MetadataManager", ptr %3, i32 0, i32 0
  %5 = load ptr, ptr %4, align 8, !tbaa !47
  %6 = call noundef i64 @_ZNK6duckdb12BlockManager12GetBlockSizeEv(ptr noundef nonnull align 8 dereferenceable(128) %5)
  %7 = udiv i64 %6, 64
  %8 = call noundef i64 @_ZN6duckdb15AlignValueFloorImTnT_Lm8EEES1_S1_(i64 noundef %7)
  ret i64 %8
}

; Function Attrs: mustprogress nounwind uwtable
define linkonce_odr noundef nonnull align 8 dereferenceable(128) ptr @_ZN6duckdb14MetadataWriter10GetManagerEv(ptr noundef nonnull align 8 dereferenceable(80) %0) #0 comdat align 2 {
  %2 = alloca ptr, align 8
  store ptr %0, ptr %2, align 8, !tbaa !229
  %3 = load ptr, ptr %2, align 8
  %4 = getelementptr inbounds nuw %"class.duckdb::MetadataWriter", ptr %3, i32 0, i32 1
  %5 = load ptr, ptr %4, align 8, !tbaa !235
  ret ptr %5
}

; Function Attrs: mustprogress uwtable
define { i64, i64 } @_ZN6duckdb14MetadataWriter19GetMetaBlockPointerEv(ptr noundef nonnull align 8 dereferenceable(80) %0) #2 align 2 {
  %2 = alloca %"struct.duckdb::MetaBlockPointer", align 8
  %3 = alloca ptr, align 8
  store ptr %0, ptr %3, align 8, !tbaa !229
  %4 = load ptr, ptr %3, align 8
  %5 = getelementptr inbounds nuw %"class.duckdb::MetadataWriter", ptr %4, i32 0, i32 6
  %6 = load i64, ptr %5, align 8, !tbaa !234
  %7 = getelementptr inbounds nuw %"class.duckdb::MetadataWriter", ptr %4, i32 0, i32 5
  %8 = load i64, ptr %7, align 8, !tbaa !231
  %9 = icmp uge i64 %6, %8
  br i1 %9, label %10, label %11

10:                                               ; preds = %1
  call void @_ZN6duckdb14MetadataWriter9NextBlockEv(ptr noundef nonnull align 8 dereferenceable(80) %4)
  br label %11

11:                                               ; preds = %10, %1
  %12 = getelementptr inbounds nuw %"class.duckdb::MetadataWriter", ptr %4, i32 0, i32 1
  %13 = load ptr, ptr %12, align 8, !tbaa !235
  %14 = getelementptr inbounds nuw %"class.duckdb::MetadataWriter", ptr %4, i32 0, i32 2
  %15 = getelementptr inbounds nuw %"struct.duckdb::MetadataHandle", ptr %14, i32 0, i32 0
  %16 = getelementptr inbounds nuw %"class.duckdb::MetadataWriter", ptr %4, i32 0, i32 6
  %17 = load i64, ptr %16, align 8, !tbaa !234
  %18 = call noundef i32 @_ZN6duckdb17UnsafeNumericCastIjmvEET_T0_(i64 noundef %17)
  %19 = call { i64, i64 } @_ZN6duckdb15MetadataManager14GetDiskPointerERKNS_15MetadataPointerEj(ptr noundef nonnull align 8 dereferenceable(128) %13, ptr noundef nonnull align 8 dereferenceable(8) %15, i32 noundef %18)
  %20 = getelementptr inbounds nuw { i64, i64 }, ptr %2, i32 0, i32 0
  %21 = extractvalue { i64, i64 } %19, 0
  store i64 %21, ptr %20, align 8
  %22 = getelementptr inbounds nuw { i64, i64 }, ptr %2, i32 0, i32 1
  %23 = extractvalue { i64, i64 } %19, 1
  store i64 %23, ptr %22, align 8
  %24 = load { i64, i64 }, ptr %2, align 8
  ret { i64, i64 } %24
}

; Function Attrs: mustprogress uwtable
define { i64, i64 } @_ZN6duckdb14MetadataWriter15GetBlockPointerEv(ptr noundef nonnull align 8 dereferenceable(80) %0) #2 align 2 {
  %2 = alloca %"struct.duckdb::BlockPointer", align 8
  %3 = alloca ptr, align 8
  %4 = alloca %"struct.duckdb::MetaBlockPointer", align 8
  store ptr %0, ptr %3, align 8, !tbaa !229
  %5 = load ptr, ptr %3, align 8
  %6 = call { i64, i64 } @_ZN6duckdb14MetadataWriter19GetMetaBlockPointerEv(ptr noundef nonnull align 8 dereferenceable(80) %5)
  %7 = getelementptr inbounds nuw { i64, i64 }, ptr %4, i32 0, i32 0
  %8 = extractvalue { i64, i64 } %6, 0
  store i64 %8, ptr %7, align 8
  %9 = getelementptr inbounds nuw { i64, i64 }, ptr %4, i32 0, i32 1
  %10 = extractvalue { i64, i64 } %6, 1
  store i64 %10, ptr %9, align 8
  %11 = call noundef nonnull align 8 dereferenceable(128) ptr @_ZN6duckdb14MetadataWriter10GetManagerEv(ptr noundef nonnull align 8 dereferenceable(80) %5)
  %12 = call noundef i64 @_ZNK6duckdb15MetadataManager20GetMetadataBlockSizeEv(ptr noundef nonnull align 8 dereferenceable(128) %11)
  %13 = getelementptr inbounds nuw { i64, i64 }, ptr %4, i32 0, i32 0
  %14 = load i64, ptr %13, align 8
  %15 = getelementptr inbounds nuw { i64, i64 }, ptr %4, i32 0, i32 1
  %16 = load i64, ptr %15, align 8
  %17 = call { i64, i64 } @_ZN6duckdb15MetadataManager14ToBlockPointerENS_16MetaBlockPointerEm(i64 %14, i64 %16, i64 noundef %12)
  %18 = getelementptr inbounds nuw { i64, i64 }, ptr %2, i32 0, i32 0
  %19 = extractvalue { i64, i64 } %17, 0
  store i64 %19, ptr %18, align 8
  %20 = getelementptr inbounds nuw { i64, i64 }, ptr %2, i32 0, i32 1
  %21 = extractvalue { i64, i64 } %17, 1
  store i64 %21, ptr %20, align 8
  %22 = load { i64, i64 }, ptr %2, align 8
  ret { i64, i64 } %22
}