; Function Attrs: mustprogress uwtable
define { i64, i64 } @_ZN6duckdb14MetadataWriter15GetBlockPointerEv(ptr noundef nonnull align 8 dereferenceable(80) %0) local_unnamed_addr #2 align 2 {
  %2 = getelementptr inbounds nuw i8, ptr %0, i64 72
  %3 = load i64, ptr %2, align 8, !tbaa !214
  %4 = getelementptr inbounds nuw i8, ptr %0, i64 64
  %5 = load i64, ptr %4, align 8, !tbaa !217
  %.not.i = icmp ult i64 %3, %5
  br i1 %.not.i, label %_ZN6duckdb14MetadataWriter19GetMetaBlockPointerEv.exit, label %6

6:                                                ; preds = %1
  tail call void @_ZN6duckdb14MetadataWriter9NextBlockEv(ptr noundef nonnull align 8 dereferenceable(80) %0)
  %.pre.i = load i64, ptr %2, align 8, !tbaa !214
  br label %_ZN6duckdb14MetadataWriter19GetMetaBlockPointerEv.exit

_ZN6duckdb14MetadataWriter19GetMetaBlockPointerEv.exit: ; preds = %1, %6
  %7 = phi i64 [ %.pre.i, %6 ], [ %3, %1 ]
  %8 = getelementptr inbounds nuw i8, ptr %0, i64 16
  %9 = load i64, ptr %8, align 8
  %10 = getelementptr inbounds nuw i8, ptr %0, i64 8
  %11 = load ptr, ptr %10, align 8, !tbaa !218
  %12 = load ptr, ptr %11, align 8, !tbaa !43
  %13 = getelementptr inbounds nuw i8, ptr %12, i64 120
  %14 = tail call noundef i64 @_ZNK6duckdb12optional_idx8GetIndexEv(ptr noundef nonnull align 8 dereferenceable(8) %13)
  %15 = add i64 %14, -8
  %16 = lshr i64 %15, 6
  %17 = and i64 %16, 288230376151711736
  %.sroa.3.8.extract.trunc.i = trunc i64 %7 to i32
  %18 = and i64 %9, 72057594037927935
  %19 = lshr i64 %9, 56
  %20 = trunc nuw nsw i64 %19 to i32
  %21 = tail call noundef i32 @_ZN6duckdb15NumericCastImplIjmLb0EE7ConvertEm(i64 noundef %17)
  %22 = mul i32 %21, %20
  %23 = add i32 %22, %.sroa.3.8.extract.trunc.i
  %.fca.0.insert.i = insertvalue { i64, i64 } poison, i64 %18, 0
  %.sroa.33.8.insert.ext.i = zext i32 %23 to i64
  %.fca.1.insert.i = insertvalue { i64, i64 } %.fca.0.insert.i, i64 %.sroa.33.8.insert.ext.i, 1
  ret { i64, i64 } %.fca.1.insert.i
}